; Function Attrs: mustprogress nofree norecurse nosync nounwind ssp willreturn memory(argmem: readwrite) uwtable
define void @_ZN6open3d8geometry6Line3DC2ERKN5Eigen6MatrixIdLi3ELi1ELi0ELi3ELi1EEES6_NS1_8LineTypeE(ptr noundef nonnull writeonly align 8 captures(none) dereferenceable(88) initializes((0, 60), (64, 88)) %0, ptr noundef nonnull readonly align 8 captures(none) dereferenceable(24) %1, ptr noundef nonnull readonly align 8 captures(none) dereferenceable(24) %2, i32 noundef %3) unnamed_addr #3 align 2 personality ptr @__gxx_personality_v0 {
  %5 = getelementptr inbounds nuw i8, ptr %0, i64 8
  tail call void @llvm.memcpy.p0.p0.i64(ptr noundef nonnull align 8 dereferenceable(48) %5, ptr noundef nonnull align 8 dereferenceable(24) %1, i64 24, i1 false), !tbaa.struct !37
  %6 = getelementptr inbounds nuw i8, ptr %0, i64 32
  tail call void @llvm.memcpy.p0.p0.i64(ptr noundef nonnull align 8 dereferenceable(24) %6, ptr noundef nonnull align 8 dereferenceable(24) %2, i64 24, i1 false), !tbaa.struct !37
  store ptr getelementptr inbounds nuw inrange(-16, 80) (i8, ptr @_ZTVN6open3d8geometry6Line3DE, i64 16), ptr %0, align 8, !tbaa !15
  %7 = getelementptr inbounds nuw i8, ptr %0, i64 56
  store i32 %3, ptr %7, align 8, !tbaa !36
  %8 = load double, ptr %2, align 8, !tbaa !10
  %9 = fdiv double 1.000000e+00, %8
  %10 = getelementptr inbounds nuw i8, ptr %0, i64 64
  store double %9, ptr %10, align 8, !tbaa !20
  %11 = getelementptr inbounds nuw i8, ptr %2, i64 8
  %12 = load double, ptr %11, align 8, !tbaa !10
  %13 = fdiv double 1.000000e+00, %12
  %14 = getelementptr inbounds nuw i8, ptr %0, i64 72
  store double %13, ptr %14, align 8, !tbaa !28
  %15 = getelementptr inbounds nuw i8, ptr %2, i64 16
  %16 = load double, ptr %15, align 8, !tbaa !10
  %17 = fdiv double 1.000000e+00, %16
  %18 = getelementptr inbounds nuw i8, ptr %0, i64 80
  store double %17, ptr %18, align 8, !tbaa !29
  ret void
}